; ModuleID = 'source-C-CXX/31/137.c'
source_filename = "source-C-CXX/31/137.c"
target datalayout = "e-m:e-p270:32:32-p271:32:32-p272:64:64-i64:64-f80:128-n8:16:32:64-S128"
target triple = "x86_64-pc-linux-gnu"

%struct._IO_FILE = type { i32, i8*, i8*, i8*, i8*, i8*, i8*, i8*, i8*, i8*, i8*, i8*, %struct._IO_marker*, %struct._IO_FILE*, i32, i32, i64, i16, i8, [1 x i8], i8*, i64, %struct._IO_codecvt*, %struct._IO_wide_data*, %struct._IO_FILE*, i8*, i64, i32, [20 x i8] }
%struct._IO_marker = type opaque
%struct._IO_codecvt = type opaque
%struct._IO_wide_data = type opaque

@.str = private unnamed_addr constant [3 x i8] c"%d\00", align 1
@.str.1 = private unnamed_addr constant [3 x i8] c"%s\00", align 1
@stdout = external local_unnamed_addr global %struct._IO_FILE*, align 8

; Function Attrs: nofree nounwind sspstrong uwtable
define dso_local void @main() local_unnamed_addr #0 {
  %1 = alloca [100 x i8], align 16
  %2 = alloca [100 x i8], align 16
  %3 = alloca i32, align 4
  %4 = alloca [100 x i32], align 16
  %5 = getelementptr inbounds [100 x i8], [100 x i8]* %1, i64 0, i64 0
  call void @llvm.lifetime.start.p0i8(i64 100, i8* nonnull %5) #4
  %6 = getelementptr inbounds [100 x i8], [100 x i8]* %2, i64 0, i64 0
  call void @llvm.lifetime.start.p0i8(i64 100, i8* nonnull %6) #4
  %7 = bitcast i32* %3 to i8*
  call void @llvm.lifetime.start.p0i8(i64 4, i8* nonnull %7) #4
  %8 = bitcast [100 x i32]* %4 to i8*
  call void @llvm.lifetime.start.p0i8(i64 400, i8* nonnull %8) #4
  %9 = call i32 (i8*, ...) @__isoc99_scanf(i8* getelementptr inbounds ([3 x i8], [3 x i8]* @.str, i64 0, i64 0), i32* nonnull %3)
  %10 = load i32, i32* %3, align 4, !tbaa !5
  %11 = icmp slt i32 %10, 1
  br i1 %11, label %82, label %12

12:                                               ; preds = %0, %76
  %13 = phi i32 [ %79, %76 ], [ 1, %0 ]
  %14 = call i32 (i8*, ...) @__isoc99_scanf(i8* getelementptr inbounds ([3 x i8], [3 x i8]* @.str.1, i64 0, i64 0), i8* nonnull %5)
  %15 = call i32 (i8*, ...) @__isoc99_scanf(i8* getelementptr inbounds ([3 x i8], [3 x i8]* @.str.1, i64 0, i64 0), i8* nonnull %6)
  %16 = call i64 @strlen(i8* noundef nonnull %5) #5
  %17 = trunc i64 %16 to i32
  %18 = call i64 @strlen(i8* noundef nonnull %6) #5
  %19 = trunc i64 %18 to i32
  %20 = sub nsw i32 %19, %17
  %21 = icmp sgt i32 %17, 0
  br i1 %21, label %22, label %63

22:                                               ; preds = %12
  %23 = and i64 %16, 4294967295
  br label %27

24:                                               ; preds = %39
  br i1 %21, label %25, label %63

25:                                               ; preds = %24
  %26 = and i64 %16, 4294967295
  br label %53

27:                                               ; preds = %22, %39
  %28 = phi i64 [ %23, %22 ], [ %52, %39 ]
  %29 = phi i32 [ %17, %22 ], [ %31, %39 ]
  %30 = phi i32 [ 10, %22 ], [ %48, %39 ]
  %31 = add nsw i32 %29, -1
  %32 = add nsw i32 %31, %20
  %33 = icmp slt i32 %32, 0
  br i1 %33, label %39, label %34

34:                                               ; preds = %27
  %35 = zext i32 %32 to i64
  %36 = getelementptr inbounds [100 x i8], [100 x i8]* %2, i64 0, i64 %35
  %37 = load i8, i8* %36, align 1, !tbaa !9
  %38 = sext i8 %37 to i32
  br label %39

39:                                               ; preds = %27, %34
  %40 = phi i32 [ %38, %34 ], [ 48, %27 ]
  %41 = zext i32 %31 to i64
  %42 = getelementptr inbounds [100 x i8], [100 x i8]* %1, i64 0, i64 %41
  %43 = load i8, i8* %42, align 1, !tbaa !9
  %44 = sext i8 %43 to i32
  %45 = sdiv i32 %30, 10
  %46 = add nsw i32 %45, 9
  %47 = sub nsw i32 %46, %40
  %48 = add nsw i32 %47, %44
  %49 = srem i32 %48, 10
  %50 = getelementptr inbounds [100 x i32], [100 x i32]* %4, i64 0, i64 %41
  store i32 %49, i32* %50, align 4, !tbaa !5
  %51 = icmp sgt i64 %28, 1
  %52 = add nsw i64 %28, -1
  br i1 %51, label %27, label %24, !llvm.loop !10

53:                                               ; preds = %25, %58
  %54 = phi i64 [ 0, %25 ], [ %59, %58 ]
  %55 = getelementptr inbounds [100 x i32], [100 x i32]* %4, i64 0, i64 %54
  %56 = load i32, i32* %55, align 4, !tbaa !5
  %57 = icmp eq i32 %56, 0
  br i1 %57, label %58, label %61

58:                                               ; preds = %53
  %59 = add nuw nsw i64 %54, 1
  %60 = icmp eq i64 %59, %26
  br i1 %60, label %76, label %53, !llvm.loop !12

61:                                               ; preds = %53
  %62 = trunc i64 %54 to i32
  br label %63

63:                                               ; preds = %61, %12, %24
  %64 = phi i32 [ 0, %24 ], [ 0, %12 ], [ %62, %61 ]
  %65 = icmp slt i32 %64, %17
  br i1 %65, label %66, label %76

66:                                               ; preds = %63
  %67 = zext i32 %64 to i64
  br label %68

68:                                               ; preds = %66, %68
  %69 = phi i64 [ %67, %66 ], [ %73, %68 ]
  %70 = getelementptr inbounds [100 x i32], [100 x i32]* %4, i64 0, i64 %69
  %71 = load i32, i32* %70, align 4, !tbaa !5
  %72 = call i32 (i8*, ...) @printf(i8* nonnull dereferenceable(1) getelementptr inbounds ([3 x i8], [3 x i8]* @.str, i64 0, i64 0), i32 %71)
  %73 = add nuw nsw i64 %69, 1
  %74 = trunc i64 %73 to i32
  %75 = icmp slt i32 %74, %17
  br i1 %75, label %68, label %76, !llvm.loop !13

76:                                               ; preds = %58, %68, %63
  %77 = load %struct._IO_FILE*, %struct._IO_FILE** @stdout, align 8, !tbaa !14
  %78 = call i32 @putc(i32 10, %struct._IO_FILE* %77) #4
  %79 = add nuw nsw i32 %13, 1
  %80 = load i32, i32* %3, align 4, !tbaa !5
  %81 = icmp slt i32 %13, %80
  br i1 %81, label %12, label %82, !llvm.loop !16

82:                                               ; preds = %76, %0
  call void @llvm.lifetime.end.p0i8(i64 400, i8* nonnull %8) #4
  call void @llvm.lifetime.end.p0i8(i64 4, i8* nonnull %7) #4
  call void @llvm.lifetime.end.p0i8(i64 100, i8* nonnull %6) #4
  call void @llvm.lifetime.end.p0i8(i64 100, i8* nonnull %5) #4
  ret void
}

; Function Attrs: argmemonly mustprogress nofree nosync nounwind willreturn
declare void @llvm.lifetime.start.p0i8(i64 immarg, i8* nocapture) #1

; Function Attrs: nofree nounwind
declare noundef i32 @__isoc99_scanf(i8* nocapture noundef readonly, ...) local_unnamed_addr #2

; Function Attrs: argmemonly mustprogress nofree nounwind readonly willreturn
declare i64 @strlen(i8* nocapture) local_unnamed_addr #3

; Function Attrs: nofree nounwind
declare noundef i32 @printf(i8* nocapture noundef readonly, ...) local_unnamed_addr #2

; Function Attrs: argmemonly mustprogress nofree nosync nounwind willreturn
declare void @llvm.lifetime.end.p0i8(i64 immarg, i8* nocapture) #1

; Function Attrs: nofree nounwind
declare noundef i32 @putc(i32 noundef, %struct._IO_FILE* nocapture noundef) local_unnamed_addr #2


!llvm.module.flags = !{!0, !1, !2, !3}
!llvm.ident = !{!4}

!0 = !{i32 1, !"wchar_size", i32 4}
!1 = !{i32 7, !"PIC Level", i32 2}
!2 = !{i32 7, !"PIE Level", i32 2}
!3 = !{i32 7, !"uwtable", i32 1}
!4 = !{!"clang version 13.0.0"}
!5 = !{!6, !6, i64 0}
!6 = !{!"int", !7, i64 0}
!7 = !{!"omnipotent char", !8, i64 0}
!8 = !{!"Simple C/C++ TBAA"}
!9 = !{!7, !7, i64 0}
!10 = distinct !{!10, !11}
!11 = !{!"llvm.loop.mustprogress"}
!12 = distinct !{!12, !11}
!13 = distinct !{!13, !11}
!14 = !{!15, !15, i64 0}
!15 = !{!"any pointer", !7, i64 0}
!16 = distinct !{!16, !11}
